; ModuleID = 'bench/grpc/original/dualstack_socket_posix.cc.ll'
source_filename = "bench/grpc/original/dualstack_socket_posix.cc.ll"
target datalayout = "e-m:e-p270:32:32-p271:32:32-p272:64:64-i64:64-i128:128-f80:128-n8:16:32:64-S128"
target triple = "x86_64-unknown-linux-gnu"

%"class.std::ios_base::Init" = type { i8 }
%"class.grpc_core::NoDestruct" = type { [8 x i8] }

$_ZN9grpc_core19NoDestructSingletonINS_14promise_detail10UnwakeableEE6value_E = comdat any

@_ZStL8__ioinit = internal global %"class.std::ios_base::Init" zeroinitializer, align 1
@__dso_handle = external hidden global i8
@grpc_forbid_dualstack_sockets_for_testing = local_unnamed_addr global i32 0, align 4
@_ZN9grpc_core19NoDestructSingletonINS_14promise_detail10UnwakeableEE6value_E = linkonce_odr global %"class.grpc_core::NoDestruct" zeroinitializer, comdat, align 8
@_ZGVN9grpc_core19NoDestructSingletonINS_14promise_detail10UnwakeableEE6value_E = linkonce_odr local_unnamed_addr global i64 0, comdat($_ZN9grpc_core19NoDestructSingletonINS_14promise_detail10UnwakeableEE6value_E), align 8
@_ZTVN9grpc_core14promise_detail10UnwakeableE = external unnamed_addr constant { [6 x ptr] }, align 8
@llvm.global_ctors = appending global [2 x { i32, ptr, ptr }] [{ i32, ptr, ptr } { i32 65535, ptr @__cxx_global_var_init.1, ptr @_ZN9grpc_core19NoDestructSingletonINS_14promise_detail10UnwakeableEE6value_E }, { i32, ptr, ptr } { i32 65535, ptr @_GLOBAL__sub_I_dualstack_socket_posix.cc, ptr null }]
@llvm.used = appending global [1 x ptr] [ptr @_ZN9grpc_core19NoDestructSingletonINS_14promise_detail10UnwakeableEE6value_E], section "llvm.metadata"

declare void @_ZNSt8ios_base4InitC1Ev(ptr noundef nonnull align 1 dereferenceable(1)) unnamed_addr #0

; Function Attrs: nounwind
declare void @_ZNSt8ios_base4InitD1Ev(ptr noundef nonnull align 1 dereferenceable(1)) unnamed_addr #1

; Function Attrs: nofree nounwind
declare i32 @__cxa_atexit(ptr, ptr, ptr) local_unnamed_addr #2

; Function Attrs: mustprogress nounwind uwtable
define noundef i32 @_Z25grpc_set_socket_dualstacki(i32 noundef %fd) local_unnamed_addr #3 {
entry:
  %off = alloca i32, align 4
  %on = alloca i32, align 4
  %0 = load i32, ptr @grpc_forbid_dualstack_sockets_for_testing, align 4
  %tobool.not = icmp eq i32 %0, 0
  br i1 %tobool.not, label %if.then, label %if.else

if.then:                                          ; preds = %entry
  store i32 0, ptr %off, align 4
  %call = call i32 @setsockopt(i32 noundef %fd, i32 noundef 41, i32 noundef 26, ptr noundef nonnull %off, i32 noundef 4) #6
  %cmp = icmp eq i32 %call, 0
  %conv = zext i1 %cmp to i32
  br label %return

if.else:                                          ; preds = %entry
  store i32 1, ptr %on, align 4
  %call1 = call i32 @setsockopt(i32 noundef %fd, i32 noundef 41, i32 noundef 26, ptr noundef nonnull %on, i32 noundef 4) #6
  br label %return

return:                                           ; preds = %if.else, %if.then
  %retval.0 = phi i32 [ 0, %if.else ], [ %conv, %if.then ]
  ret i32 %retval.0
}

; Function Attrs: nounwind
declare i32 @setsockopt(i32 noundef, i32 noundef, i32 noundef, ptr noundef, i32 noundef) local_unnamed_addr #1

; Function Attrs: mustprogress nofree norecurse nosync nounwind willreturn memory(readwrite, argmem: none, inaccessiblemem: none) uwtable
define internal void @__cxx_global_var_init.1() #4 section ".text.startup" comdat($_ZN9grpc_core19NoDestructSingletonINS_14promise_detail10UnwakeableEE6value_E) {
entry:
  %0 = load i8, ptr @_ZGVN9grpc_core19NoDestructSingletonINS_14promise_detail10UnwakeableEE6value_E, align 8
  %guard.uninitialized = icmp eq i8 %0, 0
  br i1 %guard.uninitialized, label %init.check, label %init.end

init.check:                                       ; preds = %entry
  store i8 1, ptr @_ZGVN9grpc_core19NoDestructSingletonINS_14promise_detail10UnwakeableEE6value_E, align 8
  store ptr getelementptr inbounds ({ [6 x ptr] }, ptr @_ZTVN9grpc_core14promise_detail10UnwakeableE, i64 0, i32 0, i64 2), ptr @_ZN9grpc_core19NoDestructSingletonINS_14promise_detail10UnwakeableEE6value_E, align 8
  br label %init.end

init.end:                                         ; preds = %init.check, %entry
  ret void
}

; Function Attrs: uwtable
define internal void @_GLOBAL__sub_I_dualstack_socket_posix.cc() #5 section ".text.startup" {
entry:
  tail call void @_ZNSt8ios_base4InitC1Ev(ptr noundef nonnull align 1 dereferenceable(1) @_ZStL8__ioinit)
  %0 = tail call i32 @__cxa_atexit(ptr nonnull @_ZNSt8ios_base4InitD1Ev, ptr nonnull @_ZStL8__ioinit, ptr nonnull @__dso_handle) #6
  ret void
}


!llvm.module.flags = !{!0, !1, !2, !3}

!0 = !{i32 1, !"wchar_size", i32 4}
!1 = !{i32 8, !"PIC Level", i32 2}
!2 = !{i32 7, !"uwtable", i32 2}
!3 = !{i32 7, !"frame-pointer", i32 2}
